target datalayout = "e-m:e-p270:32:32-p271:32:32-p272:64:64-i64:64-i128:128-f80:128-n8:16:32:64-S128"
target triple = "x86_64-pc-linux-gnu"

%struct.nameData = type { [64 x i8] }
%struct.RelationData = type { %struct.RelFileLocator, ptr, i32, i32, i8, i8, i8, i8, i8, i32, i32, i32, i32, ptr, ptr, i32, %struct.LockInfoData, ptr, ptr, ptr, ptr, ptr, i8, ptr, ptr, ptr, ptr, ptr, ptr, i32, ptr, i8, ptr, ptr, i32, i8, i32, ptr, i8, ptr, ptr, ptr, ptr, ptr, ptr, ptr, i32, ptr, ptr, ptr, ptr, ptr, ptr, ptr, ptr, ptr, ptr, ptr, ptr, ptr, ptr, ptr, ptr, ptr, ptr, ptr, i32, i8, ptr }
%struct.RelFileLocator = type { i32, i32, i32 }
%struct.LockInfoData = type { %struct.LockRelId }
%struct.LockRelId = type { i32, i32 }
%struct.FormData_pg_class = type { i32, %struct.nameData, i32, i32, i32, i32, i32, i32, i32, i32, float, i32, i32, i8, i8, i8, i8, i16, i16, i8, i8, i8, i8, i8, i8, i8, i8, i32, i32, i32 }
%union.anon = type { float }

; Function Attrs: inlinehint nounwind uwtable
define internal i64 @PointerGetDatum(ptr noundef %0) #5 {
  %2 = alloca ptr, align 8
  store ptr %0, ptr %2, align 8
  %3 = load ptr, ptr %2, align 8
  %4 = ptrtoint ptr %3 to i64
  ret i64 %4
}

; Function Attrs: inlinehint nounwind uwtable
define internal i64 @CStringGetDatum(ptr noundef %0) #5 {
  %2 = alloca ptr, align 8
  store ptr %0, ptr %2, align 8
  %3 = load ptr, ptr %2, align 8
  %4 = call i64 @PointerGetDatum(ptr noundef %3)
  ret i64 %4
}

; Function Attrs: inlinehint nounwind uwtable
define internal i64 @MultiXactIdGetDatum(i32 noundef %0) #5 {
  %2 = alloca i32, align 4
  store i32 %0, ptr %2, align 4
  %3 = load i32, ptr %2, align 4
  %4 = zext i32 %3 to i64
  ret i64 %4
}

; Function Attrs: inlinehint nounwind uwtable
define internal i64 @TransactionIdGetDatum(i32 noundef %0) #5 {
  %2 = alloca i32, align 4
  store i32 %0, ptr %2, align 4
  %3 = load i32, ptr %2, align 4
  %4 = zext i32 %3 to i64
  ret i64 %4
}

; Function Attrs: inlinehint nounwind uwtable
define internal i64 @Int16GetDatum(i16 noundef signext %0) #5 {
  %2 = alloca i16, align 2
  store i16 %0, ptr %2, align 2
  %3 = load i16, ptr %2, align 2
  %4 = sext i16 %3 to i64
  ret i64 %4
}

; Function Attrs: inlinehint nounwind uwtable
define internal i64 @CharGetDatum(i8 noundef signext %0) #5 {
  %2 = alloca i8, align 1
  store i8 %0, ptr %2, align 1
  %3 = load i8, ptr %2, align 1
  %4 = sext i8 %3 to i64
  ret i64 %4
}

; Function Attrs: inlinehint nounwind uwtable
define internal i64 @BoolGetDatum(i1 noundef zeroext %0) #5 {
  %2 = alloca i8, align 1
  %3 = zext i1 %0 to i8
  store i8 %3, ptr %2, align 1
  %4 = load i8, ptr %2, align 1, !range !6, !noundef !7
  %5 = trunc i8 %4 to i1
  %6 = select i1 %5, i32 1, i32 0
  %7 = sext i32 %6 to i64
  ret i64 %7
}

; Function Attrs: inlinehint nounwind uwtable
define internal i64 @Float4GetDatum(float noundef %0) #5 {
  %2 = alloca float, align 4
  %3 = alloca %union.anon, align 4
  store float %0, ptr %2, align 4
  call void @llvm.lifetime.start.p0(i64 4, ptr %3) #10
  %4 = load float, ptr %2, align 4
  store float %4, ptr %3, align 4
  %5 = load i32, ptr %3, align 4
  %6 = call i64 @Int32GetDatum(i32 noundef %5)
  call void @llvm.lifetime.end.p0(i64 4, ptr %3) #10
  ret i64 %6
}

; Function Attrs: inlinehint nounwind uwtable
define internal i64 @Int32GetDatum(i32 noundef %0) #5 {
  %2 = alloca i32, align 4
  store i32 %0, ptr %2, align 4
  %3 = load i32, ptr %2, align 4
  %4 = sext i32 %3 to i64
  ret i64 %4
}

; Function Attrs: inlinehint nounwind uwtable
define internal i64 @NameGetDatum(ptr noundef %0) #5 {
  %2 = alloca ptr, align 8
  store ptr %0, ptr %2, align 8
  %3 = load ptr, ptr %2, align 8
  %4 = getelementptr inbounds nuw %struct.nameData, ptr %3, i32 0, i32 0
  %5 = getelementptr inbounds [64 x i8], ptr %4, i64 0, i64 0
  %6 = call i64 @CStringGetDatum(ptr noundef %5)
  ret i64 %6
}

; Function Attrs: inlinehint nounwind uwtable
define internal i64 @ObjectIdGetDatum(i32 noundef %0) #5 {
  %2 = alloca i32, align 4
  store i32 %0, ptr %2, align 4
  %3 = load i32, ptr %2, align 4
  %4 = zext i32 %3 to i64
  ret i64 %4
}

; Function Attrs: nounwind uwtable
define dso_local void @InsertPgClassTuple(ptr noundef %0, ptr noundef %1, i32 noundef %2, i64 noundef %3, i64 noundef %4) #0 {
  %6 = alloca ptr, align 8
  %7 = alloca ptr, align 8
  %8 = alloca i32, align 4
  %9 = alloca i64, align 8
  %10 = alloca i64, align 8
  %11 = alloca ptr, align 8
  %12 = alloca [33 x i64], align 16
  %13 = alloca [33 x i8], align 16
  %14 = alloca ptr, align 8
  store ptr %0, ptr %6, align 8
  store ptr %1, ptr %7, align 8
  store i32 %2, ptr %8, align 4
  store i64 %3, ptr %9, align 8
  store i64 %4, ptr %10, align 8
  call void @llvm.lifetime.start.p0(i64 8, ptr %11) #10
  %15 = load ptr, ptr %7, align 8
  %16 = getelementptr inbounds nuw %struct.RelationData, ptr %15, i32 0, i32 13
  %17 = load ptr, ptr %16, align 8
  store ptr %17, ptr %11, align 8
  call void @llvm.lifetime.start.p0(i64 264, ptr %12) #10
  call void @llvm.lifetime.start.p0(i64 33, ptr %13) #10
  call void @llvm.lifetime.start.p0(i64 8, ptr %14) #10
  %18 = getelementptr inbounds [33 x i64], ptr %12, i64 0, i64 0
  call void @llvm.memset.p0.i64(ptr align 16 %18, i8 0, i64 264, i1 false)
  %19 = getelementptr inbounds [33 x i8], ptr %13, i64 0, i64 0
  call void @llvm.memset.p0.i64(ptr align 16 %19, i8 0, i64 33, i1 false)
  %20 = load i32, ptr %8, align 4
  %21 = call i64 @ObjectIdGetDatum(i32 noundef %20)
  %22 = getelementptr inbounds [33 x i64], ptr %12, i64 0, i64 0
  store i64 %21, ptr %22, align 16
  %23 = load ptr, ptr %11, align 8
  %24 = getelementptr inbounds nuw %struct.FormData_pg_class, ptr %23, i32 0, i32 1
  %25 = call i64 @NameGetDatum(ptr noundef %24)
  %26 = getelementptr inbounds [33 x i64], ptr %12, i64 0, i64 1
  store i64 %25, ptr %26, align 8
  %27 = load ptr, ptr %11, align 8
  %28 = getelementptr inbounds nuw %struct.FormData_pg_class, ptr %27, i32 0, i32 2
  %29 = load i32, ptr %28, align 4
  %30 = call i64 @ObjectIdGetDatum(i32 noundef %29)
  %31 = getelementptr inbounds [33 x i64], ptr %12, i64 0, i64 2
  store i64 %30, ptr %31, align 16
  %32 = load ptr, ptr %11, align 8
  %33 = getelementptr inbounds nuw %struct.FormData_pg_class, ptr %32, i32 0, i32 3
  %34 = load i32, ptr %33, align 4
  %35 = call i64 @ObjectIdGetDatum(i32 noundef %34)
  %36 = getelementptr inbounds [33 x i64], ptr %12, i64 0, i64 3
  store i64 %35, ptr %36, align 8
  %37 = load ptr, ptr %11, align 8
  %38 = getelementptr inbounds nuw %struct.FormData_pg_class, ptr %37, i32 0, i32 4
  %39 = load i32, ptr %38, align 4
  %40 = call i64 @ObjectIdGetDatum(i32 noundef %39)
  %41 = getelementptr inbounds [33 x i64], ptr %12, i64 0, i64 4
  store i64 %40, ptr %41, align 16
  %42 = load ptr, ptr %11, align 8
  %43 = getelementptr inbounds nuw %struct.FormData_pg_class, ptr %42, i32 0, i32 5
  %44 = load i32, ptr %43, align 4
  %45 = call i64 @ObjectIdGetDatum(i32 noundef %44)
  %46 = getelementptr inbounds [33 x i64], ptr %12, i64 0, i64 5
  store i64 %45, ptr %46, align 8
  %47 = load ptr, ptr %11, align 8
  %48 = getelementptr inbounds nuw %struct.FormData_pg_class, ptr %47, i32 0, i32 6
  %49 = load i32, ptr %48, align 4
  %50 = call i64 @ObjectIdGetDatum(i32 noundef %49)
  %51 = getelementptr inbounds [33 x i64], ptr %12, i64 0, i64 6
  store i64 %50, ptr %51, align 16
  %52 = load ptr, ptr %11, align 8
  %53 = getelementptr inbounds nuw %struct.FormData_pg_class, ptr %52, i32 0, i32 7
  %54 = load i32, ptr %53, align 4
  %55 = call i64 @ObjectIdGetDatum(i32 noundef %54)
  %56 = getelementptr inbounds [33 x i64], ptr %12, i64 0, i64 7
  store i64 %55, ptr %56, align 8
  %57 = load ptr, ptr %11, align 8
  %58 = getelementptr inbounds nuw %struct.FormData_pg_class, ptr %57, i32 0, i32 8
  %59 = load i32, ptr %58, align 4
  %60 = call i64 @ObjectIdGetDatum(i32 noundef %59)
  %61 = getelementptr inbounds [33 x i64], ptr %12, i64 0, i64 8
  store i64 %60, ptr %61, align 16
  %62 = load ptr, ptr %11, align 8
  %63 = getelementptr inbounds nuw %struct.FormData_pg_class, ptr %62, i32 0, i32 9
  %64 = load i32, ptr %63, align 4
  %65 = call i64 @Int32GetDatum(i32 noundef %64)
  %66 = getelementptr inbounds [33 x i64], ptr %12, i64 0, i64 9
  store i64 %65, ptr %66, align 8
  %67 = load ptr, ptr %11, align 8
  %68 = getelementptr inbounds nuw %struct.FormData_pg_class, ptr %67, i32 0, i32 10
  %69 = load float, ptr %68, align 4
  %70 = call i64 @Float4GetDatum(float noundef %69)
  %71 = getelementptr inbounds [33 x i64], ptr %12, i64 0, i64 10
  store i64 %70, ptr %71, align 16
  %72 = load ptr, ptr %11, align 8
  %73 = getelementptr inbounds nuw %struct.FormData_pg_class, ptr %72, i32 0, i32 11
  %74 = load i32, ptr %73, align 4
  %75 = call i64 @Int32GetDatum(i32 noundef %74)
  %76 = getelementptr inbounds [33 x i64], ptr %12, i64 0, i64 11
  store i64 %75, ptr %76, align 8
  %77 = load ptr, ptr %11, align 8
  %78 = getelementptr inbounds nuw %struct.FormData_pg_class, ptr %77, i32 0, i32 12
  %79 = load i32, ptr %78, align 4
  %80 = call i64 @ObjectIdGetDatum(i32 noundef %79)
  %81 = getelementptr inbounds [33 x i64], ptr %12, i64 0, i64 12
  store i64 %80, ptr %81, align 16
  %82 = load ptr, ptr %11, align 8
  %83 = getelementptr inbounds nuw %struct.FormData_pg_class, ptr %82, i32 0, i32 13
  %84 = load i8, ptr %83, align 4, !range !6, !noundef !7
  %85 = trunc i8 %84 to i1
  %86 = call i64 @BoolGetDatum(i1 noundef zeroext %85)
  %87 = getelementptr inbounds [33 x i64], ptr %12, i64 0, i64 13
  store i64 %86, ptr %87, align 8
  %88 = load ptr, ptr %11, align 8
  %89 = getelementptr inbounds nuw %struct.FormData_pg_class, ptr %88, i32 0, i32 14
  %90 = load i8, ptr %89, align 1, !range !6, !noundef !7
  %91 = trunc i8 %90 to i1
  %92 = call i64 @BoolGetDatum(i1 noundef zeroext %91)
  %93 = getelementptr inbounds [33 x i64], ptr %12, i64 0, i64 14
  store i64 %92, ptr %93, align 16
  %94 = load ptr, ptr %11, align 8
  %95 = getelementptr inbounds nuw %struct.FormData_pg_class, ptr %94, i32 0, i32 15
  %96 = load i8, ptr %95, align 2
  %97 = call i64 @CharGetDatum(i8 noundef signext %96)
  %98 = getelementptr inbounds [33 x i64], ptr %12, i64 0, i64 15
  store i64 %97, ptr %98, align 8
  %99 = load ptr, ptr %11, align 8
  %100 = getelementptr inbounds nuw %struct.FormData_pg_class, ptr %99, i32 0, i32 16
  %101 = load i8, ptr %100, align 1
  %102 = call i64 @CharGetDatum(i8 noundef signext %101)
  %103 = getelementptr inbounds [33 x i64], ptr %12, i64 0, i64 16
  store i64 %102, ptr %103, align 16
  %104 = load ptr, ptr %11, align 8
  %105 = getelementptr inbounds nuw %struct.FormData_pg_class, ptr %104, i32 0, i32 17
  %106 = load i16, ptr %105, align 4
  %107 = call i64 @Int16GetDatum(i16 noundef signext %106)
  %108 = getelementptr inbounds [33 x i64], ptr %12, i64 0, i64 17
  store i64 %107, ptr %108, align 8
  %109 = load ptr, ptr %11, align 8
  %110 = getelementptr inbounds nuw %struct.FormData_pg_class, ptr %109, i32 0, i32 18
  %111 = load i16, ptr %110, align 2
  %112 = call i64 @Int16GetDatum(i16 noundef signext %111)
  %113 = getelementptr inbounds [33 x i64], ptr %12, i64 0, i64 18
  store i64 %112, ptr %113, align 16
  %114 = load ptr, ptr %11, align 8
  %115 = getelementptr inbounds nuw %struct.FormData_pg_class, ptr %114, i32 0, i32 19
  %116 = load i8, ptr %115, align 4, !range !6, !noundef !7
  %117 = trunc i8 %116 to i1
  %118 = call i64 @BoolGetDatum(i1 noundef zeroext %117)
  %119 = getelementptr inbounds [33 x i64], ptr %12, i64 0, i64 19
  store i64 %118, ptr %119, align 8
  %120 = load ptr, ptr %11, align 8
  %121 = getelementptr inbounds nuw %struct.FormData_pg_class, ptr %120, i32 0, i32 20
  %122 = load i8, ptr %121, align 1, !range !6, !noundef !7
  %123 = trunc i8 %122 to i1
  %124 = call i64 @BoolGetDatum(i1 noundef zeroext %123)
  %125 = getelementptr inbounds [33 x i64], ptr %12, i64 0, i64 20
  store i64 %124, ptr %125, align 16
  %126 = load ptr, ptr %11, align 8
  %127 = getelementptr inbounds nuw %struct.FormData_pg_class, ptr %126, i32 0, i32 22
  %128 = load i8, ptr %127, align 1, !range !6, !noundef !7
  %129 = trunc i8 %128 to i1
  %130 = call i64 @BoolGetDatum(i1 noundef zeroext %129)
  %131 = getelementptr inbounds [33 x i64], ptr %12, i64 0, i64 22
  store i64 %130, ptr %131, align 16
  %132 = load ptr, ptr %11, align 8
  %133 = getelementptr inbounds nuw %struct.FormData_pg_class, ptr %132, i32 0, i32 23
  %134 = load i8, ptr %133, align 4, !range !6, !noundef !7
  %135 = trunc i8 %134 to i1
  %136 = call i64 @BoolGetDatum(i1 noundef zeroext %135)
  %137 = getelementptr inbounds [33 x i64], ptr %12, i64 0, i64 23
  store i64 %136, ptr %137, align 8
  %138 = load ptr, ptr %11, align 8
  %139 = getelementptr inbounds nuw %struct.FormData_pg_class, ptr %138, i32 0, i32 21
  %140 = load i8, ptr %139, align 2, !range !6, !noundef !7
  %141 = trunc i8 %140 to i1
  %142 = call i64 @BoolGetDatum(i1 noundef zeroext %141)
  %143 = getelementptr inbounds [33 x i64], ptr %12, i64 0, i64 21
  store i64 %142, ptr %143, align 8
  %144 = load ptr, ptr %11, align 8
  %145 = getelementptr inbounds nuw %struct.FormData_pg_class, ptr %144, i32 0, i32 24
  %146 = load i8, ptr %145, align 1, !range !6, !noundef !7
  %147 = trunc i8 %146 to i1
  %148 = call i64 @BoolGetDatum(i1 noundef zeroext %147)
  %149 = getelementptr inbounds [33 x i64], ptr %12, i64 0, i64 24
  store i64 %148, ptr %149, align 16
  %150 = load ptr, ptr %11, align 8
  %151 = getelementptr inbounds nuw %struct.FormData_pg_class, ptr %150, i32 0, i32 25
  %152 = load i8, ptr %151, align 2
  %153 = call i64 @CharGetDatum(i8 noundef signext %152)
  %154 = getelementptr inbounds [33 x i64], ptr %12, i64 0, i64 25
  store i64 %153, ptr %154, align 8
  %155 = load ptr, ptr %11, align 8
  %156 = getelementptr inbounds nuw %struct.FormData_pg_class, ptr %155, i32 0, i32 26
  %157 = load i8, ptr %156, align 1, !range !6, !noundef !7
  %158 = trunc i8 %157 to i1
  %159 = call i64 @BoolGetDatum(i1 noundef zeroext %158)
  %160 = getelementptr inbounds [33 x i64], ptr %12, i64 0, i64 26
  store i64 %159, ptr %160, align 16
  %161 = load ptr, ptr %11, align 8
  %162 = getelementptr inbounds nuw %struct.FormData_pg_class, ptr %161, i32 0, i32 27
  %163 = load i32, ptr %162, align 4
  %164 = call i64 @ObjectIdGetDatum(i32 noundef %163)
  %165 = getelementptr inbounds [33 x i64], ptr %12, i64 0, i64 27
  store i64 %164, ptr %165, align 8
  %166 = load ptr, ptr %11, align 8
  %167 = getelementptr inbounds nuw %struct.FormData_pg_class, ptr %166, i32 0, i32 28
  %168 = load i32, ptr %167, align 4
  %169 = call i64 @TransactionIdGetDatum(i32 noundef %168)
  %170 = getelementptr inbounds [33 x i64], ptr %12, i64 0, i64 28
  store i64 %169, ptr %170, align 16
  %171 = load ptr, ptr %11, align 8
  %172 = getelementptr inbounds nuw %struct.FormData_pg_class, ptr %171, i32 0, i32 29
  %173 = load i32, ptr %172, align 4
  %174 = call i64 @MultiXactIdGetDatum(i32 noundef %173)
  %175 = getelementptr inbounds [33 x i64], ptr %12, i64 0, i64 29
  store i64 %174, ptr %175, align 8
  %176 = load i64, ptr %9, align 8
  %177 = icmp ne i64 %176, 0
  br i1 %177, label %178, label %181

178:                                              ; preds = %5
  %179 = load i64, ptr %9, align 8
  %180 = getelementptr inbounds [33 x i64], ptr %12, i64 0, i64 30
  store i64 %179, ptr %180, align 16
  br label %183

181:                                              ; preds = %5
  %182 = getelementptr inbounds [33 x i8], ptr %13, i64 0, i64 30
  store i8 1, ptr %182, align 2
  br label %183

183:                                              ; preds = %181, %178
  %184 = load i64, ptr %10, align 8
  %185 = icmp ne i64 %184, 0
  br i1 %185, label %186, label %189

186:                                              ; preds = %183
  %187 = load i64, ptr %10, align 8
  %188 = getelementptr inbounds [33 x i64], ptr %12, i64 0, i64 31
  store i64 %187, ptr %188, align 8
  br label %191

189:                                              ; preds = %183
  %190 = getelementptr inbounds [33 x i8], ptr %13, i64 0, i64 31
  store i8 1, ptr %190, align 1
  br label %191

191:                                              ; preds = %189, %186
  %192 = getelementptr inbounds [33 x i8], ptr %13, i64 0, i64 32
  store i8 1, ptr %192, align 16
  %193 = load ptr, ptr %6, align 8
  %194 = getelementptr inbounds nuw %struct.RelationData, ptr %193, i32 0, i32 14
  %195 = load ptr, ptr %194, align 8
  %196 = getelementptr inbounds [33 x i64], ptr %12, i64 0, i64 0
  %197 = getelementptr inbounds [33 x i8], ptr %13, i64 0, i64 0
  %198 = call ptr @heap_form_tuple(ptr noundef %195, ptr noundef %196, ptr noundef %197)
  store ptr %198, ptr %14, align 8
  %199 = load ptr, ptr %6, align 8
  %200 = load ptr, ptr %14, align 8
  call void @CatalogTupleInsert(ptr noundef %199, ptr noundef %200)
  %201 = load ptr, ptr %14, align 8
  call void @heap_freetuple(ptr noundef %201)
  call void @llvm.lifetime.end.p0(i64 8, ptr %14) #10
  call void @llvm.lifetime.end.p0(i64 33, ptr %13) #10
  call void @llvm.lifetime.end.p0(i64 264, ptr %12) #10
  call void @llvm.lifetime.end.p0(i64 8, ptr %11) #10
  ret void
}