; Function Attrs: nounwind uwtable
define dso_local void @InsertPgClassTuple(ptr noundef %0, ptr noundef readonly captures(none) %1, i32 noundef %2, i64 noundef %3, i64 noundef %4) local_unnamed_addr #0 {
  %6 = alloca [33 x i64], align 16
  %7 = alloca [33 x i8], align 16
  %8 = getelementptr inbounds nuw i8, ptr %1, i64 56
  %9 = load ptr, ptr %8, align 8
  call void @llvm.lifetime.start.p0(i64 264, ptr nonnull %6) #11
  call void @llvm.lifetime.start.p0(i64 33, ptr nonnull %7) #11
  %10 = getelementptr inbounds nuw i8, ptr %6, i64 240
  call void @llvm.memset.p0.i64(ptr noundef nonnull align 16 dereferenceable(264) %10, i8 0, i64 24, i1 false)
  call void @llvm.memset.p0.i64(ptr noundef nonnull align 16 dereferenceable(33) %7, i8 0, i64 33, i1 false)
  %11 = zext i32 %2 to i64
  store i64 %11, ptr %6, align 16
  %12 = getelementptr inbounds nuw i8, ptr %9, i64 4
  %13 = ptrtoint ptr %12 to i64
  %14 = getelementptr inbounds nuw i8, ptr %6, i64 8
  store i64 %13, ptr %14, align 8
  %15 = getelementptr inbounds nuw i8, ptr %9, i64 68
  %16 = load i32, ptr %15, align 4
  %17 = zext i32 %16 to i64
  %18 = getelementptr inbounds nuw i8, ptr %6, i64 16
  store i64 %17, ptr %18, align 16
  %19 = getelementptr inbounds nuw i8, ptr %9, i64 72
  %20 = load i32, ptr %19, align 4
  %21 = zext i32 %20 to i64
  %22 = getelementptr inbounds nuw i8, ptr %6, i64 24
  store i64 %21, ptr %22, align 8
  %23 = getelementptr inbounds nuw i8, ptr %9, i64 76
  %24 = load i32, ptr %23, align 4
  %25 = zext i32 %24 to i64
  %26 = getelementptr inbounds nuw i8, ptr %6, i64 32
  store i64 %25, ptr %26, align 16
  %27 = getelementptr inbounds nuw i8, ptr %9, i64 80
  %28 = load i32, ptr %27, align 4
  %29 = zext i32 %28 to i64
  %30 = getelementptr inbounds nuw i8, ptr %6, i64 40
  store i64 %29, ptr %30, align 8
  %31 = getelementptr inbounds nuw i8, ptr %9, i64 84
  %32 = load i32, ptr %31, align 4
  %33 = zext i32 %32 to i64
  %34 = getelementptr inbounds nuw i8, ptr %6, i64 48
  store i64 %33, ptr %34, align 16
  %35 = getelementptr inbounds nuw i8, ptr %9, i64 88
  %36 = load i32, ptr %35, align 4
  %37 = zext i32 %36 to i64
  %38 = getelementptr inbounds nuw i8, ptr %6, i64 56
  store i64 %37, ptr %38, align 8
  %39 = getelementptr inbounds nuw i8, ptr %9, i64 92
  %40 = load i32, ptr %39, align 4
  %41 = zext i32 %40 to i64
  %42 = getelementptr inbounds nuw i8, ptr %6, i64 64
  store i64 %41, ptr %42, align 16
  %43 = getelementptr inbounds nuw i8, ptr %9, i64 96
  %44 = load i32, ptr %43, align 4
  %45 = sext i32 %44 to i64
  %46 = getelementptr inbounds nuw i8, ptr %6, i64 72
  store i64 %45, ptr %46, align 8
  %47 = getelementptr inbounds nuw i8, ptr %9, i64 100
  %48 = load i32, ptr %47, align 4
  %49 = sext i32 %48 to i64
  %50 = getelementptr inbounds nuw i8, ptr %6, i64 80
  store i64 %49, ptr %50, align 16
  %51 = getelementptr inbounds nuw i8, ptr %9, i64 104
  %52 = load i32, ptr %51, align 4
  %53 = sext i32 %52 to i64
  %54 = getelementptr inbounds nuw i8, ptr %6, i64 88
  store i64 %53, ptr %54, align 8
  %55 = getelementptr inbounds nuw i8, ptr %9, i64 108
  %56 = load i32, ptr %55, align 4
  %57 = zext i32 %56 to i64
  %58 = getelementptr inbounds nuw i8, ptr %6, i64 96
  store i64 %57, ptr %58, align 16
  %59 = getelementptr inbounds nuw i8, ptr %9, i64 112
  %60 = load i8, ptr %59, align 4, !range !10, !noundef !11
  %61 = zext nneg i8 %60 to i64
  %62 = getelementptr inbounds nuw i8, ptr %6, i64 104
  store i64 %61, ptr %62, align 8
  %63 = getelementptr inbounds nuw i8, ptr %9, i64 113
  %64 = load i8, ptr %63, align 1, !range !10, !noundef !11
  %65 = zext nneg i8 %64 to i64
  %66 = getelementptr inbounds nuw i8, ptr %6, i64 112
  store i64 %65, ptr %66, align 16
  %67 = getelementptr inbounds nuw i8, ptr %9, i64 114
  %68 = load i8, ptr %67, align 2
  %69 = sext i8 %68 to i64
  %70 = getelementptr inbounds nuw i8, ptr %6, i64 120
  store i64 %69, ptr %70, align 8
  %71 = getelementptr inbounds nuw i8, ptr %9, i64 115
  %72 = load i8, ptr %71, align 1
  %73 = sext i8 %72 to i64
  %74 = getelementptr inbounds nuw i8, ptr %6, i64 128
  store i64 %73, ptr %74, align 16
  %75 = getelementptr inbounds nuw i8, ptr %9, i64 116
  %76 = load i16, ptr %75, align 4
  %77 = sext i16 %76 to i64
  %78 = getelementptr inbounds nuw i8, ptr %6, i64 136
  store i64 %77, ptr %78, align 8
  %79 = getelementptr inbounds nuw i8, ptr %9, i64 118
  %80 = load i16, ptr %79, align 2
  %81 = sext i16 %80 to i64
  %82 = getelementptr inbounds nuw i8, ptr %6, i64 144
  store i64 %81, ptr %82, align 16
  %83 = getelementptr inbounds nuw i8, ptr %9, i64 120
  %84 = load i8, ptr %83, align 4, !range !10, !noundef !11
  %85 = zext nneg i8 %84 to i64
  %86 = getelementptr inbounds nuw i8, ptr %6, i64 152
  store i64 %85, ptr %86, align 8
  %87 = getelementptr inbounds nuw i8, ptr %9, i64 121
  %88 = load i8, ptr %87, align 1, !range !10, !noundef !11
  %89 = zext nneg i8 %88 to i64
  %90 = getelementptr inbounds nuw i8, ptr %6, i64 160
  store i64 %89, ptr %90, align 16
  %91 = getelementptr inbounds nuw i8, ptr %9, i64 123
  %92 = load i8, ptr %91, align 1, !range !10, !noundef !11
  %93 = zext nneg i8 %92 to i64
  %94 = getelementptr inbounds nuw i8, ptr %6, i64 176
  store i64 %93, ptr %94, align 16
  %95 = getelementptr inbounds nuw i8, ptr %9, i64 124
  %96 = load i8, ptr %95, align 4, !range !10, !noundef !11
  %97 = zext nneg i8 %96 to i64
  %98 = getelementptr inbounds nuw i8, ptr %6, i64 184
  store i64 %97, ptr %98, align 8
  %99 = getelementptr inbounds nuw i8, ptr %9, i64 122
  %100 = load i8, ptr %99, align 2, !range !10, !noundef !11
  %101 = zext nneg i8 %100 to i64
  %102 = getelementptr inbounds nuw i8, ptr %6, i64 168
  store i64 %101, ptr %102, align 8
  %103 = getelementptr inbounds nuw i8, ptr %9, i64 125
  %104 = load i8, ptr %103, align 1, !range !10, !noundef !11
  %105 = zext nneg i8 %104 to i64
  %106 = getelementptr inbounds nuw i8, ptr %6, i64 192
  store i64 %105, ptr %106, align 16
  %107 = getelementptr inbounds nuw i8, ptr %9, i64 126
  %108 = load i8, ptr %107, align 2
  %109 = sext i8 %108 to i64
  %110 = getelementptr inbounds nuw i8, ptr %6, i64 200
  store i64 %109, ptr %110, align 8
  %111 = getelementptr inbounds nuw i8, ptr %9, i64 127
  %112 = load i8, ptr %111, align 1, !range !10, !noundef !11
  %113 = zext nneg i8 %112 to i64
  %114 = getelementptr inbounds nuw i8, ptr %6, i64 208
  store i64 %113, ptr %114, align 16
  %115 = getelementptr inbounds nuw i8, ptr %9, i64 128
  %116 = load i32, ptr %115, align 4
  %117 = zext i32 %116 to i64
  %118 = getelementptr inbounds nuw i8, ptr %6, i64 216
  store i64 %117, ptr %118, align 8
  %119 = getelementptr inbounds nuw i8, ptr %9, i64 132
  %120 = load i32, ptr %119, align 4
  %121 = zext i32 %120 to i64
  %122 = getelementptr inbounds nuw i8, ptr %6, i64 224
  store i64 %121, ptr %122, align 16
  %123 = getelementptr inbounds nuw i8, ptr %9, i64 136
  %124 = load i32, ptr %123, align 4
  %125 = zext i32 %124 to i64
  %126 = getelementptr inbounds nuw i8, ptr %6, i64 232
  store i64 %125, ptr %126, align 8
  %.not = icmp eq i64 %3, 0
  br i1 %.not, label %129, label %127

127:                                              ; preds = %5
  %128 = getelementptr inbounds nuw i8, ptr %6, i64 240
  store i64 %3, ptr %128, align 16
  br label %131

129:                                              ; preds = %5
  %130 = getelementptr inbounds nuw i8, ptr %7, i64 30
  store i8 1, ptr %130, align 2
  br label %131

131:                                              ; preds = %129, %127
  %.not39 = icmp eq i64 %4, 0
  br i1 %.not39, label %134, label %132

132:                                              ; preds = %131
  %133 = getelementptr inbounds nuw i8, ptr %6, i64 248
  store i64 %4, ptr %133, align 8
  br label %136

134:                                              ; preds = %131
  %135 = getelementptr inbounds nuw i8, ptr %7, i64 31
  store i8 1, ptr %135, align 1
  br label %136

136:                                              ; preds = %134, %132
  %137 = getelementptr inbounds nuw i8, ptr %7, i64 32
  store i8 1, ptr %137, align 16
  %138 = getelementptr inbounds nuw i8, ptr %0, i64 64
  %139 = load ptr, ptr %138, align 8
  %140 = call ptr @heap_form_tuple(ptr noundef %139, ptr noundef nonnull %6, ptr noundef nonnull %7) #11
  call void @CatalogTupleInsert(ptr noundef %0, ptr noundef %140) #11
  call void @heap_freetuple(ptr noundef %140) #11
  call void @llvm.lifetime.end.p0(i64 33, ptr nonnull %7) #11
  call void @llvm.lifetime.end.p0(i64 264, ptr nonnull %6) #11
  ret void
}